target datalayout = "e-m:e-p270:32:32-p271:32:32-p272:64:64-i64:64-i128:128-f80:128-n8:16:32:64-S128"
target triple = "x86_64-pc-linux-gnu"

%struct.hs_scratch = type { i32, i8, i32, i32, i32, i32, i32, %struct.RoseContext, ptr, ptr, ptr, ptr, ptr, ptr, ptr, i64, %struct.catchup_pq, %struct.core_info, %struct.match_deduper, i32, i32, ptr, ptr, ptr, ptr, ptr, i64, i32, i32, i32, i32, i32, ptr, ptr, i8 }
%struct.RoseContext = type { i8, i64, i64, i64, i64, i64, i64, i64, i64, i64, i32, i32, ptr, i64, ptr, i64 }
%struct.catchup_pq = type { ptr, i32 }
%struct.core_info = type { ptr, ptr, ptr, ptr, ptr, ptr, ptr, ptr, i64, ptr, i64, i64, i8 }
%struct.match_deduper = type { [2 x ptr], [2 x ptr], [2 x ptr], i32, i32, i64, i8 }
%struct.RoseEngine = type { i8, i8, i8, i8, i8, i8, i8, i8, i8, i32, i32, i32, i32, i32, i32, i32, i32, i32, i32, i32, i32, i32, i32, i32, i32, i32, i32, i32, i32, i32, i32, i32, i32, i32, i32, i32, i32, i32, i32, i32, i32, i32, i32, i32, i32, i32, i32, i32, i32, i32, i32, i32, i32, i32, i32, i32, i32, i32, i32, i32, i32, i32, i32, i32, i32, i32, i64, i64, i32, i32, i32, i32, i32, i32, i32, %struct.RoseStateOffsets, %struct.RoseBoundaryReports, i32, i32, i32, i32, i32, i32, i32, i32, i32, i32, i32, i32, %struct.scatter_full_plan }
%struct.RoseStateOffsets = type { i32, i32, i32, i32, i32, i32, i32, i32, i32, i32, i32, i32, i32, i32, i32, i32, i32, i32, i32, i32, i32, i32, i32 }
%struct.RoseBoundaryReports = type { i32, i32, i32 }
%struct.scatter_full_plan = type { i32, i32, i32, i32, i32, i32, i32, i32 }
%struct.som_operation = type { i8, i32, %union.anon }
%union.anon = type { i64 }
%struct.NFA = type { i32, i32, i8, i8, i8, i8, %union.anon.2, i32, i32, i32, i32, i32, i32, i32, [20 x i8] }
%union.anon.2 = type { i16 }

; Function Attrs: alwaysinline nounwind uwtable
define internal ptr @getSomRevNFA(ptr noundef %0, i32 noundef %1) #2 {
  %3 = alloca ptr, align 8
  %4 = alloca i32, align 4
  %5 = alloca ptr, align 8
  %6 = alloca i32, align 4
  %7 = alloca ptr, align 8
  store ptr %0, ptr %3, align 8
  store i32 %1, ptr %4, align 4
  call void @llvm.lifetime.start.p0(i64 8, ptr %5) #8
  %8 = load ptr, ptr %3, align 8
  %9 = load ptr, ptr %3, align 8
  %10 = getelementptr inbounds nuw %struct.RoseEngine, ptr %9, i32 0, i32 87
  %11 = load i32, ptr %10, align 4
  %12 = zext i32 %11 to i64
  %13 = getelementptr inbounds nuw i8, ptr %8, i64 %12
  store ptr %13, ptr %5, align 8
  call void @llvm.lifetime.start.p0(i64 4, ptr %6) #8
  %14 = load ptr, ptr %5, align 8
  %15 = load i32, ptr %4, align 4
  %16 = zext i32 %15 to i64
  %17 = getelementptr inbounds nuw i32, ptr %14, i64 %16
  %18 = load i32, ptr %17, align 4
  store i32 %18, ptr %6, align 4
  call void @llvm.lifetime.start.p0(i64 8, ptr %7) #8
  %19 = load ptr, ptr %3, align 8
  %20 = load i32, ptr %6, align 4
  %21 = zext i32 %20 to i64
  %22 = getelementptr inbounds nuw i8, ptr %19, i64 %21
  store ptr %22, ptr %7, align 8
  %23 = load ptr, ptr %7, align 8
  call void @llvm.lifetime.end.p0(i64 8, ptr %7) #8
  call void @llvm.lifetime.end.p0(i64 4, ptr %6) #8
  call void @llvm.lifetime.end.p0(i64 8, ptr %5) #8
  ret ptr %23
}

; Function Attrs: nounwind uwtable
define internal void @runRevNfa(ptr noundef %0, ptr noundef %1, i64 noundef %2, ptr noundef %3) #0 {
  %5 = alloca ptr, align 8
  %6 = alloca ptr, align 8
  %7 = alloca i64, align 8
  %8 = alloca ptr, align 8
  %9 = alloca ptr, align 8
  %10 = alloca i32, align 4
  %11 = alloca ptr, align 8
  %12 = alloca i64, align 8
  %13 = alloca i64, align 8
  %14 = alloca ptr, align 8
  %15 = alloca ptr, align 8
  %16 = alloca i64, align 8
  store ptr %0, ptr %5, align 8
  store ptr %1, ptr %6, align 8
  store i64 %2, ptr %7, align 8
  store ptr %3, ptr %8, align 8
  call void @llvm.lifetime.start.p0(i64 8, ptr %9) #8
  %17 = load ptr, ptr %5, align 8
  %18 = getelementptr inbounds nuw %struct.hs_scratch, ptr %17, i32 0, i32 17
  store ptr %18, ptr %9, align 8
  br label %19

19:                                               ; preds = %4
  br label %20

20:                                               ; preds = %19
  br label %21

21:                                               ; preds = %20
  call void @llvm.lifetime.start.p0(i64 4, ptr %10) #8
  %22 = load ptr, ptr %6, align 8
  %23 = getelementptr inbounds nuw %struct.som_operation, ptr %22, i32 0, i32 2
  %24 = load i64, ptr %23, align 8
  %25 = trunc i64 %24 to i32
  store i32 %25, ptr %10, align 4
  br label %26

26:                                               ; preds = %21
  br label %27

27:                                               ; preds = %26
  br label %28

28:                                               ; preds = %27
  call void @llvm.lifetime.start.p0(i64 8, ptr %11) #8
  %29 = load ptr, ptr %9, align 8
  %30 = getelementptr inbounds nuw %struct.core_info, ptr %29, i32 0, i32 2
  %31 = load ptr, ptr %30, align 8
  %32 = load i32, ptr %10, align 4
  %33 = call ptr @getSomRevNFA(ptr noundef %31, i32 noundef %32)
  store ptr %33, ptr %11, align 8
  call void @llvm.lifetime.start.p0(i64 8, ptr %12) #8
  %34 = load i64, ptr %7, align 8
  %35 = load ptr, ptr %9, align 8
  %36 = getelementptr inbounds nuw %struct.core_info, ptr %35, i32 0, i32 11
  %37 = load i64, ptr %36, align 8
  %38 = sub i64 %34, %37
  store i64 %38, ptr %12, align 8
  call void @llvm.lifetime.start.p0(i64 8, ptr %13) #8
  %39 = load ptr, ptr %9, align 8
  %40 = getelementptr inbounds nuw %struct.core_info, ptr %39, i32 0, i32 10
  %41 = load i64, ptr %40, align 8
  store i64 %41, ptr %13, align 8
  br label %42

42:                                               ; preds = %28
  br label %43

43:                                               ; preds = %42
  br label %44

44:                                               ; preds = %43
  call void @llvm.lifetime.start.p0(i64 8, ptr %14) #8
  %45 = load ptr, ptr %9, align 8
  %46 = getelementptr inbounds nuw %struct.core_info, ptr %45, i32 0, i32 7
  %47 = load ptr, ptr %46, align 8
  store ptr %47, ptr %14, align 8
  call void @llvm.lifetime.start.p0(i64 8, ptr %15) #8
  %48 = load ptr, ptr %9, align 8
  %49 = getelementptr inbounds nuw %struct.core_info, ptr %48, i32 0, i32 9
  %50 = load ptr, ptr %49, align 8
  store ptr %50, ptr %15, align 8
  %51 = load i64, ptr %13, align 8
  %52 = icmp ne i64 %51, 0
  br i1 %52, label %53, label %78

53:                                               ; preds = %44
  %54 = load i64, ptr %12, align 8
  %55 = load ptr, ptr %11, align 8
  %56 = getelementptr inbounds nuw %struct.NFA, ptr %55, i32 0, i32 11
  %57 = load i32, ptr %56, align 32
  %58 = zext i32 %57 to i64
  %59 = icmp ult i64 %54, %58
  br i1 %59, label %60, label %78

60:                                               ; preds = %53
  call void @llvm.lifetime.start.p0(i64 8, ptr %16) #8
  %61 = load ptr, ptr %11, align 8
  %62 = getelementptr inbounds nuw %struct.NFA, ptr %61, i32 0, i32 11
  %63 = load i32, ptr %62, align 32
  %64 = zext i32 %63 to i64
  %65 = load i64, ptr %12, align 8
  %66 = sub i64 %64, %65
  store i64 %66, ptr %16, align 8
  %67 = load i64, ptr %16, align 8
  %68 = load i64, ptr %13, align 8
  %69 = icmp ult i64 %67, %68
  br i1 %69, label %70, label %77

70:                                               ; preds = %60
  %71 = load i64, ptr %13, align 8
  %72 = load i64, ptr %16, align 8
  %73 = sub i64 %71, %72
  %74 = load ptr, ptr %15, align 8
  %75 = getelementptr inbounds nuw i8, ptr %74, i64 %73
  store ptr %75, ptr %15, align 8
  %76 = load i64, ptr %16, align 8
  store i64 %76, ptr %13, align 8
  br label %77

77:                                               ; preds = %70, %60
  call void @llvm.lifetime.end.p0(i64 8, ptr %16) #8
  br label %78

78:                                               ; preds = %77, %53, %44
  br label %79

79:                                               ; preds = %78
  br label %80

80:                                               ; preds = %79
  br label %81

81:                                               ; preds = %80
  %82 = load i64, ptr %7, align 8
  %83 = load ptr, ptr %8, align 8
  store i64 %82, ptr %83, align 8
  %84 = load ptr, ptr %11, align 8
  %85 = load i64, ptr %7, align 8
  %86 = load ptr, ptr %14, align 8
  %87 = load i64, ptr %12, align 8
  %88 = load ptr, ptr %15, align 8
  %89 = load i64, ptr %13, align 8
  %90 = load ptr, ptr %8, align 8
  %91 = call signext i8 @nfaBlockExecReverse(ptr noundef %84, i64 noundef %85, ptr noundef %86, i64 noundef %87, ptr noundef %88, i64 noundef %89, ptr noundef @somRevCallback, ptr noundef %90)
  call void @llvm.lifetime.end.p0(i64 8, ptr %15) #8
  call void @llvm.lifetime.end.p0(i64 8, ptr %14) #8
  call void @llvm.lifetime.end.p0(i64 8, ptr %13) #8
  call void @llvm.lifetime.end.p0(i64 8, ptr %12) #8
  call void @llvm.lifetime.end.p0(i64 8, ptr %11) #8
  call void @llvm.lifetime.end.p0(i64 4, ptr %10) #8
  call void @llvm.lifetime.end.p0(i64 8, ptr %9) #8
  ret void
}

; Function Attrs: nounwind uwtable
define hidden i64 @handleSomExternal(ptr noundef %0, ptr noundef %1, i64 noundef %2) #0 {
  %4 = alloca i64, align 8
  %5 = alloca ptr, align 8
  %6 = alloca ptr, align 8
  %7 = alloca i64, align 8
  %8 = alloca ptr, align 8
  %9 = alloca ptr, align 8
  %10 = alloca i32, align 4
  %11 = alloca ptr, align 8
  %12 = alloca i32, align 4
  %13 = alloca i32, align 4
  %14 = alloca ptr, align 8
  %15 = alloca i64, align 8
  store ptr %0, ptr %5, align 8
  store ptr %1, ptr %6, align 8
  store i64 %2, ptr %7, align 8
  call void @llvm.lifetime.start.p0(i64 8, ptr %8) #8
  %16 = load ptr, ptr %5, align 8
  %17 = getelementptr inbounds nuw %struct.hs_scratch, ptr %16, i32 0, i32 17
  store ptr %17, ptr %8, align 8
  call void @llvm.lifetime.start.p0(i64 8, ptr %9) #8
  %18 = load ptr, ptr %8, align 8
  %19 = getelementptr inbounds nuw %struct.core_info, ptr %18, i32 0, i32 2
  %20 = load ptr, ptr %19, align 8
  store ptr %20, ptr %9, align 8
  %21 = load ptr, ptr %6, align 8
  %22 = getelementptr inbounds nuw %struct.som_operation, ptr %21, i32 0, i32 0
  %23 = load i8, ptr %22, align 8
  %24 = zext i8 %23 to i32
  switch i32 %24, label %77 [
    i32 1, label %25
    i32 12, label %34
    i32 11, label %41
    i32 13, label %69
  ]

25:                                               ; preds = %3
  br label %26

26:                                               ; preds = %25
  br label %27

27:                                               ; preds = %26
  br label %28

28:                                               ; preds = %27
  %29 = load i64, ptr %7, align 8
  %30 = load ptr, ptr %6, align 8
  %31 = getelementptr inbounds nuw %struct.som_operation, ptr %30, i32 0, i32 2
  %32 = load i64, ptr %31, align 8
  %33 = sub i64 %29, %32
  store i64 %33, ptr %4, align 8
  store i32 1, ptr %10, align 4
  br label %82

34:                                               ; preds = %3
  br label %35

35:                                               ; preds = %34
  br label %36

36:                                               ; preds = %35
  br label %37

37:                                               ; preds = %36
  %38 = load ptr, ptr %6, align 8
  %39 = getelementptr inbounds nuw %struct.som_operation, ptr %38, i32 0, i32 2
  %40 = load i64, ptr %39, align 8
  store i64 %40, ptr %4, align 8
  store i32 1, ptr %10, align 4
  br label %82

41:                                               ; preds = %3
  call void @llvm.lifetime.start.p0(i64 8, ptr %11) #8
  %42 = load ptr, ptr %5, align 8
  %43 = getelementptr inbounds nuw %struct.hs_scratch, ptr %42, i32 0, i32 22
  %44 = load ptr, ptr %43, align 8
  store ptr %44, ptr %11, align 8
  call void @llvm.lifetime.start.p0(i64 4, ptr %12) #8
  %45 = load ptr, ptr %6, align 8
  %46 = getelementptr inbounds nuw %struct.som_operation, ptr %45, i32 0, i32 2
  %47 = load i64, ptr %46, align 8
  %48 = trunc i64 %47 to i32
  store i32 %48, ptr %12, align 4
  br label %49

49:                                               ; preds = %41
  br label %50

50:                                               ; preds = %49
  br label %51

51:                                               ; preds = %50
  call void @llvm.lifetime.start.p0(i64 4, ptr %13) #8
  %52 = load ptr, ptr %9, align 8
  %53 = getelementptr inbounds nuw %struct.RoseEngine, ptr %52, i32 0, i32 20
  %54 = load i32, ptr %53, align 8
  store i32 %54, ptr %13, align 4
  call void @llvm.lifetime.start.p0(i64 8, ptr %14) #8
  %55 = load ptr, ptr %8, align 8
  %56 = getelementptr inbounds nuw %struct.core_info, ptr %55, i32 0, i32 3
  %57 = load ptr, ptr %56, align 8
  %58 = load ptr, ptr %9, align 8
  %59 = getelementptr inbounds nuw %struct.RoseEngine, ptr %58, i32 0, i32 75
  %60 = getelementptr inbounds nuw %struct.RoseStateOffsets, ptr %59, i32 0, i32 18
  %61 = load i32, ptr %60, align 4
  %62 = zext i32 %61 to i64
  %63 = getelementptr inbounds nuw i8, ptr %57, i64 %62
  store ptr %63, ptr %14, align 8
  %64 = load ptr, ptr %11, align 8
  %65 = load i32, ptr %12, align 4
  %66 = zext i32 %65 to i64
  %67 = getelementptr inbounds nuw i64, ptr %64, i64 %66
  %68 = load i64, ptr %67, align 8
  store i64 %68, ptr %4, align 8
  store i32 1, ptr %10, align 4
  call void @llvm.lifetime.end.p0(i64 8, ptr %14) #8
  call void @llvm.lifetime.end.p0(i64 4, ptr %13) #8
  call void @llvm.lifetime.end.p0(i64 4, ptr %12) #8
  call void @llvm.lifetime.end.p0(i64 8, ptr %11) #8
  br label %82

69:                                               ; preds = %3
  br label %70

70:                                               ; preds = %69
  br label %71

71:                                               ; preds = %70
  br label %72

72:                                               ; preds = %71
  call void @llvm.lifetime.start.p0(i64 8, ptr %15) #8
  store i64 0, ptr %15, align 8
  %73 = load ptr, ptr %5, align 8
  %74 = load ptr, ptr %6, align 8
  %75 = load i64, ptr %7, align 8
  call void @runRevNfa(ptr noundef %73, ptr noundef %74, i64 noundef %75, ptr noundef %15)
  %76 = load i64, ptr %15, align 8
  store i64 %76, ptr %4, align 8
  store i32 1, ptr %10, align 4
  call void @llvm.lifetime.end.p0(i64 8, ptr %15) #8
  br label %82

77:                                               ; preds = %3
  br label %78

78:                                               ; preds = %77
  br label %79

79:                                               ; preds = %78
  br label %80

80:                                               ; preds = %79
  br label %81

81:                                               ; preds = %80
  store i64 0, ptr %4, align 8
  store i32 1, ptr %10, align 4
  br label %82

82:                                               ; preds = %81, %72, %51, %37, %28
  call void @llvm.lifetime.end.p0(i64 8, ptr %9) #8
  call void @llvm.lifetime.end.p0(i64 8, ptr %8) #8
  %83 = load i64, ptr %4, align 8
  ret i64 %83
}