; Function Attrs: nounwind uwtable
define hidden i64 @handleSomExternal(ptr noundef readonly captures(none) %0, ptr noundef readonly captures(none) %1, i64 noundef %2) local_unnamed_addr #0 {
  %4 = alloca i64, align 8
  %5 = load i8, ptr %1, align 8
  switch i8 %5, label %52 [
    i8 1, label %6
    i8 12, label %10
    i8 11, label %13
    i8 13, label %21
  ]

6:                                                ; preds = %3
  %7 = getelementptr inbounds nuw i8, ptr %1, i64 8
  %8 = load i64, ptr %7, align 8
  %9 = sub i64 %2, %8
  br label %52

10:                                               ; preds = %3
  %11 = getelementptr inbounds nuw i8, ptr %1, i64 8
  %12 = load i64, ptr %11, align 8
  br label %52

13:                                               ; preds = %3
  %14 = getelementptr inbounds nuw i8, ptr %0, i64 424
  %15 = load ptr, ptr %14, align 8
  %16 = getelementptr inbounds nuw i8, ptr %1, i64 8
  %17 = load i64, ptr %16, align 8
  %18 = and i64 %17, 4294967295
  %19 = getelementptr inbounds nuw i64, ptr %15, i64 %18
  %20 = load i64, ptr %19, align 8
  br label %52

21:                                               ; preds = %3
  call void @llvm.lifetime.start.p0(i64 8, ptr nonnull %4) #8
  %22 = getelementptr i8, ptr %1, i64 8
  %.val = load i64, ptr %22, align 8
  %23 = getelementptr inbounds nuw i8, ptr %0, i64 248
  %24 = load ptr, ptr %23, align 8
  %25 = getelementptr inbounds nuw i8, ptr %24, i64 428
  %26 = load i32, ptr %25, align 4
  %27 = zext i32 %26 to i64
  %28 = getelementptr inbounds nuw i8, ptr %24, i64 %27
  %29 = and i64 %.val, 4294967295
  %30 = getelementptr inbounds nuw i32, ptr %28, i64 %29
  %31 = load i32, ptr %30, align 4
  %32 = zext i32 %31 to i64
  %33 = getelementptr inbounds nuw i8, ptr %24, i64 %32
  %34 = getelementptr inbounds nuw i8, ptr %0, i64 320
  %35 = load i64, ptr %34, align 8
  %36 = sub i64 %2, %35
  %37 = getelementptr inbounds nuw i8, ptr %0, i64 312
  %38 = load i64, ptr %37, align 8
  %39 = getelementptr inbounds nuw i8, ptr %0, i64 288
  %40 = load ptr, ptr %39, align 8
  %41 = getelementptr inbounds nuw i8, ptr %0, i64 304
  %42 = load ptr, ptr %41, align 8
  %.not.i = icmp eq i64 %38, 0
  br i1 %.not.i, label %runRevNfa.exit, label %43

43:                                               ; preds = %21
  %44 = getelementptr inbounds nuw i8, ptr %33, i64 32
  %45 = load i32, ptr %44, align 32
  %46 = zext i32 %45 to i64
  %47 = icmp ult i64 %36, %46
  br i1 %47, label %48, label %runRevNfa.exit

48:                                               ; preds = %43
  %49 = sub nuw nsw i64 %46, %36
  %.028.idx.i = tail call i64 @llvm.usub.sat.i64(i64 %38, i64 %49)
  %.028.i = getelementptr inbounds nuw i8, ptr %42, i64 %.028.idx.i
  %.0.i = tail call i64 @llvm.umin.i64(i64 %49, i64 %38)
  br label %runRevNfa.exit

runRevNfa.exit:                                   ; preds = %21, %43, %48
  %.129.i = phi ptr [ %.028.i, %48 ], [ %42, %43 ], [ %42, %21 ]
  %.1.i = phi i64 [ %.0.i, %48 ], [ %38, %43 ], [ 0, %21 ]
  store i64 %2, ptr %4, align 8
  %50 = call signext i8 @nfaBlockExecReverse(ptr noundef nonnull %33, i64 noundef %2, ptr noundef %40, i64 noundef %36, ptr noundef %.129.i, i64 noundef %.1.i, ptr noundef nonnull @somRevCallback, ptr noundef nonnull %4) #8
  %51 = load i64, ptr %4, align 8
  call void @llvm.lifetime.end.p0(i64 8, ptr nonnull %4) #8
  br label %52

52:                                               ; preds = %3, %runRevNfa.exit, %13, %10, %6
  %.0 = phi i64 [ %51, %runRevNfa.exit ], [ %20, %13 ], [ %12, %10 ], [ %9, %6 ], [ 0, %3 ]
  ret i64 %.0
}